target datalayout = "e-m:e-p270:32:32-p271:32:32-p272:64:64-i64:64-i128:128-f80:128-n8:16:32:64-S128"
target triple = "x86_64-pc-linux-gnu"

%struct.mbedtls_mpi = type { ptr, i16, i16 }

; Function Attrs: nounwind uwtable
define hidden i32 @mbedtls_mpi_grow(ptr noundef %0, i64 noundef %1) #0 {
  %3 = alloca i32, align 4
  %4 = alloca ptr, align 8
  %5 = alloca i64, align 8
  %6 = alloca ptr, align 8
  %7 = alloca i32, align 4
  store ptr %0, ptr %4, align 8, !tbaa !3
  store i64 %1, ptr %5, align 8, !tbaa !15
  call void @llvm.lifetime.start.p0(i64 8, ptr %6) #9
  %8 = load i64, ptr %5, align 8, !tbaa !15
  %9 = icmp ugt i64 %8, 10000
  br i1 %9, label %10, label %11

10:                                               ; preds = %2
  store i32 -16, ptr %3, align 4
  store i32 1, ptr %7, align 4
  br label %55

11:                                               ; preds = %2
  %12 = load ptr, ptr %4, align 8, !tbaa !3
  %13 = getelementptr inbounds nuw %struct.mbedtls_mpi, ptr %12, i32 0, i32 2
  %14 = load i16, ptr %13, align 2, !tbaa !10
  %15 = zext i16 %14 to i64
  %16 = load i64, ptr %5, align 8, !tbaa !15
  %17 = icmp ult i64 %15, %16
  br i1 %17, label %18, label %54

18:                                               ; preds = %11
  %19 = load i64, ptr %5, align 8, !tbaa !15
  %20 = call noalias ptr @calloc(i64 noundef %19, i64 noundef 8) #10
  store ptr %20, ptr %6, align 8, !tbaa !25
  %21 = icmp eq ptr %20, null
  br i1 %21, label %22, label %23

22:                                               ; preds = %18
  store i32 -16, ptr %3, align 4
  store i32 1, ptr %7, align 4
  br label %55

23:                                               ; preds = %18
  %24 = load ptr, ptr %4, align 8, !tbaa !3
  %25 = getelementptr inbounds nuw %struct.mbedtls_mpi, ptr %24, i32 0, i32 0
  %26 = load ptr, ptr %25, align 8, !tbaa !17
  %27 = icmp ne ptr %26, null
  br i1 %27, label %28, label %46

28:                                               ; preds = %23
  %29 = load ptr, ptr %6, align 8, !tbaa !25
  %30 = load ptr, ptr %4, align 8, !tbaa !3
  %31 = getelementptr inbounds nuw %struct.mbedtls_mpi, ptr %30, i32 0, i32 0
  %32 = load ptr, ptr %31, align 8, !tbaa !17
  %33 = load ptr, ptr %4, align 8, !tbaa !3
  %34 = getelementptr inbounds nuw %struct.mbedtls_mpi, ptr %33, i32 0, i32 2
  %35 = load i16, ptr %34, align 2, !tbaa !10
  %36 = zext i16 %35 to i64
  %37 = mul i64 %36, 8
  call void @llvm.memcpy.p0.p0.i64(ptr align 8 %29, ptr align 8 %32, i64 %37, i1 false)
  %38 = load ptr, ptr %4, align 8, !tbaa !3
  %39 = getelementptr inbounds nuw %struct.mbedtls_mpi, ptr %38, i32 0, i32 0
  %40 = load ptr, ptr %39, align 8, !tbaa !17
  %41 = load ptr, ptr %4, align 8, !tbaa !3
  %42 = getelementptr inbounds nuw %struct.mbedtls_mpi, ptr %41, i32 0, i32 2
  %43 = load i16, ptr %42, align 2, !tbaa !10
  %44 = zext i16 %43 to i64
  %45 = mul i64 8, %44
  call void @mbedtls_zeroize_and_free(ptr noundef %40, i64 noundef %45)
  br label %46

46:                                               ; preds = %28, %23
  %47 = load i64, ptr %5, align 8, !tbaa !15
  %48 = trunc i64 %47 to i16
  %49 = load ptr, ptr %4, align 8, !tbaa !3
  %50 = getelementptr inbounds nuw %struct.mbedtls_mpi, ptr %49, i32 0, i32 2
  store i16 %48, ptr %50, align 2, !tbaa !10
  %51 = load ptr, ptr %6, align 8, !tbaa !25
  %52 = load ptr, ptr %4, align 8, !tbaa !3
  %53 = getelementptr inbounds nuw %struct.mbedtls_mpi, ptr %52, i32 0, i32 0
  store ptr %51, ptr %53, align 8, !tbaa !17
  br label %54

54:                                               ; preds = %46, %11
  store i32 0, ptr %3, align 4
  store i32 1, ptr %7, align 4
  br label %55

55:                                               ; preds = %54, %22, %10
  call void @llvm.lifetime.end.p0(i64 8, ptr %6) #9
  %56 = load i32, ptr %3, align 4
  ret i32 %56
}

; Function Attrs: nounwind uwtable
define hidden i32 @mbedtls_mpi_add_abs(ptr noundef %0, ptr noundef %1, ptr noundef %2) #0 {
  %4 = alloca i32, align 4
  %5 = alloca ptr, align 8
  %6 = alloca ptr, align 8
  %7 = alloca ptr, align 8
  %8 = alloca i32, align 4
  %9 = alloca i64, align 8
  %10 = alloca ptr, align 8
  %11 = alloca i64, align 8
  %12 = alloca ptr, align 8
  %13 = alloca i32, align 4
  store ptr %0, ptr %5, align 8, !tbaa !3
  store ptr %1, ptr %6, align 8, !tbaa !3
  store ptr %2, ptr %7, align 8, !tbaa !3
  call void @llvm.lifetime.start.p0(i64 4, ptr %8) #9
  store i32 -110, ptr %8, align 4, !tbaa !19
  call void @llvm.lifetime.start.p0(i64 8, ptr %9) #9
  call void @llvm.lifetime.start.p0(i64 8, ptr %10) #9
  call void @llvm.lifetime.start.p0(i64 8, ptr %11) #9
  %14 = load ptr, ptr %5, align 8, !tbaa !3
  %15 = load ptr, ptr %7, align 8, !tbaa !3
  %16 = icmp eq ptr %14, %15
  br i1 %16, label %17, label %21

17:                                               ; preds = %3
  call void @llvm.lifetime.start.p0(i64 8, ptr %12) #9
  %18 = load ptr, ptr %6, align 8, !tbaa !3
  store ptr %18, ptr %12, align 8, !tbaa !3
  %19 = load ptr, ptr %5, align 8, !tbaa !3
  store ptr %19, ptr %6, align 8, !tbaa !3
  %20 = load ptr, ptr %12, align 8, !tbaa !3
  store ptr %20, ptr %7, align 8, !tbaa !3
  call void @llvm.lifetime.end.p0(i64 8, ptr %12) #9
  br label %21

21:                                               ; preds = %17, %3
  %22 = load ptr, ptr %5, align 8, !tbaa !3
  %23 = load ptr, ptr %6, align 8, !tbaa !3
  %24 = icmp ne ptr %22, %23
  br i1 %24, label %25, label %35

25:                                               ; preds = %21
  br label %26

26:                                               ; preds = %25
  %27 = load ptr, ptr %5, align 8, !tbaa !3
  %28 = load ptr, ptr %6, align 8, !tbaa !3
  %29 = call i32 @mbedtls_mpi_copy(ptr noundef %27, ptr noundef %28)
  store i32 %29, ptr %8, align 4, !tbaa !19
  %30 = icmp ne i32 %29, 0
  br i1 %30, label %31, label %32

31:                                               ; preds = %26
  br label %128

32:                                               ; preds = %26
  br label %33

33:                                               ; preds = %32
  br label %34

34:                                               ; preds = %33
  br label %35

35:                                               ; preds = %34, %21
  %36 = load ptr, ptr %5, align 8, !tbaa !3
  %37 = getelementptr inbounds nuw %struct.mbedtls_mpi, ptr %36, i32 0, i32 1
  store i16 1, ptr %37, align 8, !tbaa !14
  %38 = load ptr, ptr %7, align 8, !tbaa !3
  %39 = getelementptr inbounds nuw %struct.mbedtls_mpi, ptr %38, i32 0, i32 2
  %40 = load i16, ptr %39, align 2, !tbaa !10
  %41 = zext i16 %40 to i64
  store i64 %41, ptr %9, align 8, !tbaa !15
  br label %42

42:                                               ; preds = %56, %35
  %43 = load i64, ptr %9, align 8, !tbaa !15
  %44 = icmp ugt i64 %43, 0
  br i1 %44, label %45, label %59

45:                                               ; preds = %42
  %46 = load ptr, ptr %7, align 8, !tbaa !3
  %47 = getelementptr inbounds nuw %struct.mbedtls_mpi, ptr %46, i32 0, i32 0
  %48 = load ptr, ptr %47, align 8, !tbaa !17
  %49 = load i64, ptr %9, align 8, !tbaa !15
  %50 = sub i64 %49, 1
  %51 = getelementptr inbounds nuw i64, ptr %48, i64 %50
  %52 = load i64, ptr %51, align 8, !tbaa !15
  %53 = icmp ne i64 %52, 0
  br i1 %53, label %54, label %55

54:                                               ; preds = %45
  br label %59

55:                                               ; preds = %45
  br label %56

56:                                               ; preds = %55
  %57 = load i64, ptr %9, align 8, !tbaa !15
  %58 = add i64 %57, -1
  store i64 %58, ptr %9, align 8, !tbaa !15
  br label %42, !llvm.loop !50

59:                                               ; preds = %54, %42
  %60 = load i64, ptr %9, align 8, !tbaa !15
  %61 = icmp eq i64 %60, 0
  br i1 %61, label %62, label %63

62:                                               ; preds = %59
  store i32 0, ptr %4, align 4
  store i32 1, ptr %13, align 4
  br label %130

63:                                               ; preds = %59
  br label %64

64:                                               ; preds = %63
  %65 = load ptr, ptr %5, align 8, !tbaa !3
  %66 = load i64, ptr %9, align 8, !tbaa !15
  %67 = call i32 @mbedtls_mpi_grow(ptr noundef %65, i64 noundef %66)
  store i32 %67, ptr %8, align 4, !tbaa !19
  %68 = icmp ne i32 %67, 0
  br i1 %68, label %69, label %70

69:                                               ; preds = %64
  br label %128

70:                                               ; preds = %64
  br label %71

71:                                               ; preds = %70
  br label %72

72:                                               ; preds = %71
  %73 = load ptr, ptr %5, align 8, !tbaa !3
  %74 = getelementptr inbounds nuw %struct.mbedtls_mpi, ptr %73, i32 0, i32 0
  %75 = load ptr, ptr %74, align 8, !tbaa !17
  store ptr %75, ptr %10, align 8, !tbaa !25
  %76 = load ptr, ptr %10, align 8, !tbaa !25
  %77 = load ptr, ptr %10, align 8, !tbaa !25
  %78 = load ptr, ptr %7, align 8, !tbaa !3
  %79 = getelementptr inbounds nuw %struct.mbedtls_mpi, ptr %78, i32 0, i32 0
  %80 = load ptr, ptr %79, align 8, !tbaa !17
  %81 = load i64, ptr %9, align 8, !tbaa !15
  %82 = call i64 @mbedtls_mpi_core_add(ptr noundef %76, ptr noundef %77, ptr noundef %80, i64 noundef %81)
  store i64 %82, ptr %11, align 8, !tbaa !15
  %83 = load i64, ptr %9, align 8, !tbaa !15
  %84 = load ptr, ptr %10, align 8, !tbaa !25
  %85 = getelementptr inbounds nuw i64, ptr %84, i64 %83
  store ptr %85, ptr %10, align 8, !tbaa !25
  br label %86

86:                                               ; preds = %112, %72
  %87 = load i64, ptr %11, align 8, !tbaa !15
  %88 = icmp ne i64 %87, 0
  br i1 %88, label %89, label %127

89:                                               ; preds = %86
  %90 = load i64, ptr %9, align 8, !tbaa !15
  %91 = load ptr, ptr %5, align 8, !tbaa !3
  %92 = getelementptr inbounds nuw %struct.mbedtls_mpi, ptr %91, i32 0, i32 2
  %93 = load i16, ptr %92, align 2, !tbaa !10
  %94 = zext i16 %93 to i64
  %95 = icmp uge i64 %90, %94
  br i1 %95, label %96, label %112

96:                                               ; preds = %89
  br label %97

97:                                               ; preds = %96
  %98 = load ptr, ptr %5, align 8, !tbaa !3
  %99 = load i64, ptr %9, align 8, !tbaa !15
  %100 = add i64 %99, 1
  %101 = call i32 @mbedtls_mpi_grow(ptr noundef %98, i64 noundef %100)
  store i32 %101, ptr %8, align 4, !tbaa !19
  %102 = icmp ne i32 %101, 0
  br i1 %102, label %103, label %104

103:                                              ; preds = %97
  br label %128

104:                                              ; preds = %97
  br label %105

105:                                              ; preds = %104
  br label %106

106:                                              ; preds = %105
  %107 = load ptr, ptr %5, align 8, !tbaa !3
  %108 = getelementptr inbounds nuw %struct.mbedtls_mpi, ptr %107, i32 0, i32 0
  %109 = load ptr, ptr %108, align 8, !tbaa !17
  %110 = load i64, ptr %9, align 8, !tbaa !15
  %111 = getelementptr inbounds nuw i64, ptr %109, i64 %110
  store ptr %111, ptr %10, align 8, !tbaa !25
  br label %112

112:                                              ; preds = %106, %89
  %113 = load i64, ptr %11, align 8, !tbaa !15
  %114 = load ptr, ptr %10, align 8, !tbaa !25
  %115 = load i64, ptr %114, align 8, !tbaa !15
  %116 = add i64 %115, %113
  store i64 %116, ptr %114, align 8, !tbaa !15
  %117 = load ptr, ptr %10, align 8, !tbaa !25
  %118 = load i64, ptr %117, align 8, !tbaa !15
  %119 = load i64, ptr %11, align 8, !tbaa !15
  %120 = icmp ult i64 %118, %119
  %121 = zext i1 %120 to i32
  %122 = sext i32 %121 to i64
  store i64 %122, ptr %11, align 8, !tbaa !15
  %123 = load i64, ptr %9, align 8, !tbaa !15
  %124 = add i64 %123, 1
  store i64 %124, ptr %9, align 8, !tbaa !15
  %125 = load ptr, ptr %10, align 8, !tbaa !25
  %126 = getelementptr inbounds nuw i64, ptr %125, i32 1
  store ptr %126, ptr %10, align 8, !tbaa !25
  br label %86, !llvm.loop !51

127:                                              ; preds = %86
  br label %128

128:                                              ; preds = %127, %103, %69, %31
  %129 = load i32, ptr %8, align 4, !tbaa !19
  store i32 %129, ptr %4, align 4
  store i32 1, ptr %13, align 4
  br label %130

130:                                              ; preds = %128, %62
  call void @llvm.lifetime.end.p0(i64 8, ptr %11) #9
  call void @llvm.lifetime.end.p0(i64 8, ptr %10) #9
  call void @llvm.lifetime.end.p0(i64 8, ptr %9) #9
  call void @llvm.lifetime.end.p0(i64 4, ptr %8) #9
  %131 = load i32, ptr %4, align 4
  ret i32 %131
}