; Function Attrs: nounwind uwtable
define hidden range(i32 -16, 1) i32 @mbedtls_mpi_add_abs(ptr noundef %0, ptr noundef %1, ptr noundef readonly %2) local_unnamed_addr #0 {
  %4 = icmp eq ptr %0, %2
  %spec.select62 = select i1 %4, ptr %1, ptr %2
  %.not70 = icmp eq ptr %1, %0
  %.not = or i1 %.not70, %4
  br i1 %.not, label %7, label %5

5:                                                ; preds = %3
  %6 = tail call i32 @mbedtls_mpi_copy(ptr noundef %0, ptr noundef %1)
  %.not55 = icmp eq i32 %6, 0
  br i1 %.not55, label %7, label %mbedtls_mpi_grow.exit

7:                                                ; preds = %5, %3
  %8 = getelementptr inbounds nuw i8, ptr %0, i64 8
  store i16 1, ptr %8, align 8, !tbaa !10
  %9 = getelementptr inbounds nuw i8, ptr %spec.select62, i64 10
  %10 = load i16, ptr %9, align 2, !tbaa !3
  %cond73 = icmp eq i16 %10, 0
  br i1 %cond73, label %mbedtls_mpi_grow.exit, label %.lr.ph

.lr.ph:                                           ; preds = %7
  %11 = zext i16 %10 to i64
  %12 = load ptr, ptr %spec.select62, align 8, !tbaa !12
  %invariant.gep = getelementptr i8, ptr %12, i64 -8
  br label %13

13:                                               ; preds = %.lr.ph, %15
  %.04174 = phi i64 [ %11, %.lr.ph ], [ %16, %15 ]
  %gep = getelementptr i64, ptr %invariant.gep, i64 %.04174
  %14 = load i64, ptr %gep, align 8, !tbaa !17
  %.not57 = icmp eq i64 %14, 0
  br i1 %.not57, label %15, label %17

15:                                               ; preds = %13
  %16 = add nsw i64 %.04174, -1
  %cond = icmp eq i64 %16, 0
  br i1 %cond, label %mbedtls_mpi_grow.exit, label %13, !llvm.loop !39

17:                                               ; preds = %13
  %18 = icmp ugt i64 %.04174, 10000
  br i1 %18, label %mbedtls_mpi_grow.exit, label %19

19:                                               ; preds = %17
  %20 = getelementptr inbounds nuw i8, ptr %0, i64 10
  %21 = load i16, ptr %20, align 2, !tbaa !3
  %22 = zext i16 %21 to i64
  %23 = icmp samesign ugt i64 %.04174, %22
  br i1 %23, label %24, label %._crit_edge

._crit_edge:                                      ; preds = %19
  %.pre = load ptr, ptr %0, align 8, !tbaa !12
  br label %33

24:                                               ; preds = %19
  %25 = tail call noalias ptr @calloc(i64 noundef %.04174, i64 noundef 8) #17
  %26 = icmp eq ptr %25, null
  br i1 %26, label %mbedtls_mpi_grow.exit, label %27

27:                                               ; preds = %24
  %28 = load ptr, ptr %0, align 8, !tbaa !12
  %.not.i = icmp eq ptr %28, null
  br i1 %.not.i, label %31, label %29

29:                                               ; preds = %27
  %30 = shl nuw nsw i64 %22, 3
  tail call void @llvm.memcpy.p0.p0.i64(ptr nonnull align 8 %25, ptr nonnull align 8 %28, i64 %30, i1 false)
  tail call void @mbedtls_zeroize_and_free(ptr noundef nonnull %28, i64 noundef %30) #16
  br label %31

31:                                               ; preds = %29, %27
  %32 = trunc nuw nsw i64 %.04174 to i16
  store i16 %32, ptr %20, align 2, !tbaa !3
  store ptr %25, ptr %0, align 8, !tbaa !12
  %.pre86 = load ptr, ptr %spec.select62, align 8, !tbaa !12
  br label %33

33:                                               ; preds = %._crit_edge, %31
  %34 = phi ptr [ %12, %._crit_edge ], [ %.pre86, %31 ]
  %35 = phi ptr [ %.pre, %._crit_edge ], [ %25, %31 ]
  %36 = tail call i64 @mbedtls_mpi_core_add(ptr noundef %35, ptr noundef %35, ptr noundef %34, i64 noundef %.04174) #16
  %.not5975 = icmp eq i64 %36, 0
  br i1 %.not5975, label %mbedtls_mpi_grow.exit, label %.lr.ph79

.lr.ph79:                                         ; preds = %33
  %37 = getelementptr inbounds nuw i64, ptr %35, i64 %.04174
  %.pre87 = load i16, ptr %20, align 2, !tbaa !3
  br label %38

38:                                               ; preds = %.lr.ph79, %._crit_edge90
  %39 = phi i16 [ %.pre87, %.lr.ph79 ], [ %58, %._crit_edge90 ]
  %.03978 = phi i64 [ %36, %.lr.ph79 ], [ 1, %._crit_edge90 ]
  %.04077 = phi ptr [ %37, %.lr.ph79 ], [ %62, %._crit_edge90 ]
  %.14276 = phi i64 [ %.04174, %.lr.ph79 ], [ %.pre91, %._crit_edge90 ]
  %40 = zext i16 %39 to i64
  %.not60 = icmp samesign ult i64 %.14276, %40
  %.pre91 = add i64 %.14276, 1
  br i1 %.not60, label %._crit_edge90, label %41

41:                                               ; preds = %38
  %42 = icmp ugt i64 %.pre91, 10000
  br i1 %42, label %mbedtls_mpi_grow.exit, label %43

43:                                               ; preds = %41
  %44 = icmp samesign ugt i64 %.pre91, %40
  br i1 %44, label %45, label %._crit_edge88

._crit_edge88:                                    ; preds = %43
  %.pre89 = load ptr, ptr %0, align 8, !tbaa !12
  br label %54

45:                                               ; preds = %43
  %46 = tail call noalias ptr @calloc(i64 noundef %.pre91, i64 noundef 8) #17
  %47 = icmp eq ptr %46, null
  br i1 %47, label %mbedtls_mpi_grow.exit, label %48

48:                                               ; preds = %45
  %49 = load ptr, ptr %0, align 8, !tbaa !12
  %.not.i64 = icmp eq ptr %49, null
  br i1 %.not.i64, label %52, label %50

50:                                               ; preds = %48
  %51 = shl nuw nsw i64 %40, 3
  tail call void @llvm.memcpy.p0.p0.i64(ptr nonnull align 8 %46, ptr nonnull align 8 %49, i64 %51, i1 false)
  tail call void @mbedtls_zeroize_and_free(ptr noundef nonnull %49, i64 noundef %51) #16
  br label %52

52:                                               ; preds = %50, %48
  %53 = trunc nuw nsw i64 %.pre91 to i16
  store i16 %53, ptr %20, align 2, !tbaa !3
  store ptr %46, ptr %0, align 8, !tbaa !12
  br label %54

54:                                               ; preds = %._crit_edge88, %52
  %55 = phi ptr [ %46, %52 ], [ %.pre89, %._crit_edge88 ]
  %56 = phi i16 [ %53, %52 ], [ %39, %._crit_edge88 ]
  %57 = getelementptr inbounds nuw i64, ptr %55, i64 %.14276
  br label %._crit_edge90

._crit_edge90:                                    ; preds = %38, %54
  %58 = phi i16 [ %56, %54 ], [ %39, %38 ]
  %.1 = phi ptr [ %57, %54 ], [ %.04077, %38 ]
  %59 = load i64, ptr %.1, align 8, !tbaa !17
  %60 = add i64 %59, %.03978
  store i64 %60, ptr %.1, align 8, !tbaa !17
  %61 = icmp ult i64 %60, %.03978
  %62 = getelementptr inbounds nuw i8, ptr %.1, i64 8
  br i1 %61, label %38, label %mbedtls_mpi_grow.exit, !llvm.loop !40

mbedtls_mpi_grow.exit:                            ; preds = %15, %._crit_edge90, %41, %45, %7, %33, %24, %17, %5
  %.0 = phi i32 [ %6, %5 ], [ -16, %17 ], [ -16, %24 ], [ 0, %33 ], [ 0, %7 ], [ 0, %._crit_edge90 ], [ -16, %41 ], [ -16, %45 ], [ 0, %15 ]
  ret i32 %.0
}